###############################################################################
#
# IAR ELF Linker V9.32.1.338/W64 for ARM                  28/Dec/2022  11:21:35
# Copyright 2007-2022 IAR Systems AB.
#
#    Output file  =  F:\semester 7\proj_final_0\Debug\Exe\Calculator.out
#    Map file     =  F:\semester 7\proj_final_0\Debug\List\Calculator.map
#    Command line =
#        -f "F:\semester 7\proj_final_0\Debug\Exe\Calculator.out.rsp"
#        ("F:\semester 7\proj_final_0\Debug\Obj\Adv_Calc.o" "F:\semester
#        7\proj_final_0\Debug\Obj\Basic_Calc.o" "F:\semester
#        7\proj_final_0\Debug\Obj\Calculator.o" "F:\semester
#        7\proj_final_0\Debug\Obj\Calculator_Base.o" "F:\semester
#        7\proj_final_0\Debug\Obj\Delay.o" "F:\semester
#        7\proj_final_0\Debug\Obj\DIO.o"
#        C:\ti\TivaWare_C_Series-2.2.0.295\driverlib\ewarm\Exe\driverlib.a
#        "F:\semester 7\proj_final_0\Debug\Obj\Keypad.o" "F:\semester
#        7\proj_final_0\Debug\Obj\LCD.o" "F:\semester
#        7\proj_final_0\Debug\Obj\LEDs.o" "F:\semester
#        7\proj_final_0\Debug\Obj\main.o" "F:\semester
#        7\proj_final_0\Debug\Obj\startup_ewarm.o" "F:\semester
#        7\proj_final_0\Debug\Obj\Stopwatch.o" "F:\semester
#        7\proj_final_0\Debug\Obj\stopwatch_2.o" "F:\semester
#        7\proj_final_0\Debug\Obj\Systick_Timer.o" --no_out_extension -o
#        "F:\semester 7\proj_final_0\Debug\Exe\Calculator.out" --redirect
#        _Printf=_PrintfFullNoMb --redirect _Scanf=_ScanfFullNoMb --map
#        "F:\semester 7\proj_final_0\Debug\List\Calculator.map" --config
#        "F:\semester
#        7\embeded\IAR\arm/config/linker/TexasInstruments/TM4C123GE6.icf"
#        --semihosting
#        C:\ti\TivaWare_C_Series-2.2.0.295\driverlib\ewarm\Exe\driverlib.a
#        --entry __iar_program_start --vfe --text_out locale --cpu=Cortex-M4
#        --fpu=VFPv4_sp)
#
###############################################################################

*******************************************************************************
*** MESSAGES
***


  "F:\semester 7\proj_final_0\Debug\Obj\Adv_Calc.o" "F:\semester 7\proj_final_0\Debug\Obj\Basic_Calc.o" "F:\semester 7\proj_final_0\Debug\Obj\Calculator.o" "F:\semester 7\proj_final_0\Debug\Obj\Calculator_Base.o" "F:\semester 7\proj_final_0\Debug\Obj\Delay.o" "F:\semester 7\proj_final_0\Debug\Obj\DIO.o" C:\ti\TivaWare_C_Series-2.2.0.295\driverlib\ewarm\Exe\driverlib.a "F:\semester 7\proj_final_0\Debug\Obj\Keypad.o" "F:\semester 7\proj_final_0\Debug\Obj\LCD.o" "F:\semester 7\proj_final_0\Debug\Obj\LEDs.o" "F:\semester 7\proj_final_0\Debug\Obj\main.o" "F:\semester 7\proj_final_0\Debug\Obj\startup_ewarm.o" "F:\semester 7\proj_final_0\Debug\Obj\Stopwatch.o" "F:\semester 7\proj_final_0\Debug\Obj\stopwatch_2.o" "F:\semester 7\proj_final_0\Debug\Obj\Systick_Timer.o" --no_out_extension -o "F:\semester 7\proj_final_0\Debug\Exe\Calculator.out" --redirect _Printf=_PrintfFullNoMb --redirect _Scanf=_ScanfFullNoMb --map "F:\semester 7\proj_final_0\Debug\List\Calculator.map" --config "F:\semester 7\embeded\IAR\arm/config/linker/TexasInstruments/TM4C123GE6.icf" --semihosting C:\ti\TivaWare_C_Series-2.2.0.295\driverlib\ewarm\Exe\driverlib.a --entry __iar_program_start --vfe --text_out locale --cpu=Cortex-M4 --fpu=VFPv4_sp
                                                                                                                                                                                                                                                                                                                                                                                                                                                                                                                                                                                                                                                                                                                                                                                                                                                                                                                                                                                                                                                                                                                    ^
"F:\semester 7\proj_final_0\Debug\Exe\Calculator.out.rsp",1  Warning[Li065]: 
          duplicate file:
          "C:\ti\TivaWare_C_Series-2.2.0.295\driverlib\ewarm\Exe\driverlib.a"
Warning[Lt009]: Inconsistent wchar_t size
            gpio.o(driverlib.a) and 4 other objects in driverlib.a have wchar_t
                      size 16 bits
            Adv_Calc.o and 46 other objects, some of them in dl7M_tln.a and 17
                      other libraries have wchar_t size 32 bits


*******************************************************************************
*** RUNTIME MODEL ATTRIBUTES
***

CppFlavor       = *
__CPP_Runtime   = 1
__Heap_Handler  = Basic
__SystemLibrary = DLib
__dlib_version  = 6


*******************************************************************************
*** HEAP SELECTION
***

The basic heap was selected because --advanced_heap
was not specified and the application did not appear to
be primarily optimized for speed.


*******************************************************************************
*** PLACEMENT SUMMARY
***

"A0":  place at address 0x0 { ro section .intvec };
"P1":  place in [from 0x0 to 0x1'ffff] { ro };
define block CSTACK with size = 4K, alignment = 8 { };
define block HEAP with size = 8K, alignment = 8 { };
"P2":  place in [from 0x2000'0000 to 0x2000'7fff] {
          rw, block CSTACK, block HEAP };
do not initialize { rw section .noinit };
initialize by copy { rw };

  Section            Kind         Address    Size  Object
  -------            ----         -------    ----  ------
"A0":                                       0x26c
  .intvec            const            0x0   0x26c  startup_ewarm.o [1]
                                  - 0x26c   0x26c

"P1":                                      0x3bf4
  .text              ro code        0x26c   0xeae  xprintffull_nomb.o [2]
  .text              ro code       0x111a    0x2a  copy_init3.o [5]
  .text              ro code       0x1144    0x16  strchr.o [5]
  .text              ro code       0x115a    0x1a  xsnprout.o [2]
  .text              ro code       0x1174    0x40  xfail_s.o [2]
  .text              ro code       0x11b4    0x36  strlen.o [5]
  .text              ro code       0x11ea     0xa  xsprout.o [2]
  .text              ro code       0x11f4    0x58  memchr.o [5]
  .text              ro code       0x124c    0x76  ABImemcpy_unaligned.o [5]
  .text              ro code       0x12c4    0x70  frexp.o [4]
  .text              ro code       0x1334    0x34  DblCmpLe.o [4]
  .text              ro code       0x1368    0x34  DblCmpGe.o [4]
  .text              ro code       0x139c   0x13a  ldexp.o [4]
  .text              ro code       0x14d8    0x36  DblToS32.o [4]
  .text              ro code       0x1510    0x22  S32ToDbl.o [4]
  .text              ro code       0x1534   0x24e  DblAddSub.o [4]
  .text              ro code       0x1784   0x246  DblDiv.o [4]
  .text              ro code       0x19cc    0x22  DblToU32.o [4]
  .text              ro code       0x19f0    0x1c  U32ToDbl.o [4]
  .text              ro code       0x1a0c   0x1aa  DblMul.o [4]
  .text              ro code       0x1bb8   0x230  I64DivMod.o [5]
  .text              ro code       0x1de8     0x6  abort.o [2]
  .text              ro code       0x1df0     0x2  I64DivZer.o [5]
  .text              ro code       0x1df4    0x14  exit.o [6]
  .text              ro code       0x1e08    0x7c  iarttio.o [6]
  .text              ro code       0x1e84     0x8  XShttio.o [2]
  .text              ro code       0x1e8c   0x520  Basic_Calc.o [1]
  .text              ro code       0x23ac   0x268  LCD.o [1]
  .text              ro code       0x2614    0x30  Delay.o [1]
  .text              ro code       0x2644    0xb8  LEDs.o [1]
  .text              ro code       0x26fc   0x214  gpio.o [3]
  .text              ro code       0x2910   0x170  interrupt.o [3]
  .text              ro code       0x2a80   0x384  Adv_Calc.o [1]
  .text              ro code       0x2e04   0x390  stopwatch_2.o [1]
  .text              ro code       0x3194   0x138  Keypad.o [1]
  .text              ro code       0x32cc   0x1a0  Calculator_Base.o [1]
  .text              ro code       0x346c    0x14  memset.o [5]
  .text              ro code       0x3480    0x40  sprintf.o [2]
  .text              ro code       0x34c0    0x48  FltToDbl.o [4]
  .text              ro code       0x3508    0x44  snprintf.o [2]
  .text              ro code       0x354c   0x13c  heap0.o [2]
  .text              ro code       0x3688     0x4  heaptramp0.o [2]
  .text              ro code       0x368c     0x8  cpu.o [3]
  .text              ro code       0x3694    0x28  printf.o [2]
  .text              ro code       0x36bc   0x188  timer.o [3]
  .text              ro code       0x3844   0x1c4  sysctl.o [3]
  .text              ro code       0x3a08    0x3c  Systick_Timer.o [1]
  .text              ro code       0x3a44    0xb4  Calculator.o [1]
  .text              ro code       0x3af8    0x66  ABImemset.o [5]
  .text              ro code       0x3b60    0x2c  xgetmemchunk.o [2]
  .text              ro code       0x3b8c    0x38  zero_init3.o [5]
  .rodata            const         0x3bc4    0x28  Calculator_Base.o [1]
  .text              ro code       0x3bec    0x28  data_init.o [5]
  .text              ro code       0x3c14    0x22  fpinit_M.o [4]
  .text              ro code       0x3c36    0x22  iarwrite.o [6]
  .iar.init_table    const         0x3c58    0x24  - Linker created -
  .text              ro code       0x3c7c    0x20  putchar.o [2]
  .text              ro code       0x3c9c    0x10  write.o [6]
  .text              ro code       0x3cac    0x1e  dwrite.o [6]
  .text              ro code       0x3cca    0x20  iarwstd.o [6]
  .text              ro code       0x3cec    0x1e  startup_ewarm.o [1]
  .text              ro code       0x3d0c    0x1c  cstartup_M.o [5]
  .text              ro code       0x3d28    0x1e  cmain.o [5]
  .text              ro code       0x3d46     0x4  low_level_init.o [2]
  .text              ro code       0x3d4c    0x1c  main.o [1]
  .text              ro code       0x3d68     0x4  exit.o [2]
  .text              ro code       0x3d6c     0xa  cexit.o [5]
  .text              ro code       0x3d76    0x16  xprout.o [2]
  .rodata            const         0x3d8c    0x14  Basic_Calc.o [1]
  .rodata            const         0x3da0    0x10  Calculator.o [1]
  .rodata            const         0x3db0    0x10  Calculator.o [1]
  .rodata            const         0x3dc0    0x10  Calculator.o [1]
  .rodata            const         0x3dd0    0x10  Calculator_Base.o [1]
  .rodata            const         0x3de0    0x10  Calculator_Base.o [1]
  .rodata            const         0x3df0    0x10  Keypad.o [1]
  Initializer bytes  const         0x3e00    0x10  <for P2-1>
  .rodata            const         0x3e10     0xc  Basic_Calc.o [1]
  .rodata            const         0x3e1c     0xc  Calculator.o [1]
  .rodata            const         0x3e28     0xc  Calculator.o [1]
  .rodata            const         0x3e34     0xc  LCD.o [1]
  .rodata            const         0x3e40     0x8  Adv_Calc.o [1]
  .rodata            const         0x3e48     0x8  Adv_Calc.o [1]
  .rodata            const         0x3e50     0x8  Calculator.o [1]
  .rodata            const         0x3e58     0x8  LCD.o [1]
  .rodata            const         0x3e60     0x0  zero_init3.o [5]
  .rodata            const         0x3e60     0x0  copy_init3.o [5]
                                 - 0x3e60  0x3bf4

"P2", part 1 of 3:                           0x10
  P2-1                        0x2000'0000     0xe  <Init block>
    .data            inited   0x2000'0000     0x8  XShttio.o [2]
    .data            inited   0x2000'0008     0x1  Basic_Calc.o [1]
    .data            inited   0x2000'0009     0x1  Basic_Calc.o [1]
    .data            inited   0x2000'000a     0x1  Basic_Calc.o [1]
    .data            inited   0x2000'000b     0x1  Basic_Calc.o [1]
    .data            inited   0x2000'000c     0x1  Basic_Calc.o [1]
    .data            inited   0x2000'000d     0x1  stopwatch_2.o [1]
                            - 0x2000'000e     0xe

"P2", part 2 of 3:                          0x6b8
  VTABLE             zero     0x2000'0400   0x26c  interrupt.o [3]
  .bss               zero     0x2000'066c    0x28  Basic_Calc.o [1]
  .bss               zero     0x2000'0694     0x8  heap0.o [2]
  .bss               zero     0x2000'069c     0x4  Adv_Calc.o [1]
  .bss               zero     0x2000'06a0     0x4  Adv_Calc.o [1]
  .bss               zero     0x2000'06a4     0x4  Adv_Calc.o [1]
  .bss               zero     0x2000'06a8     0x4  Basic_Calc.o [1]
  .bss               zero     0x2000'06ac     0x4  Basic_Calc.o [1]
  .bss               zero     0x2000'06b0     0x4  Basic_Calc.o [1]
  .bss               zero     0x2000'06b4     0x4  Basic_Calc.o [1]
  .bss               zero     0x2000'06b8     0x4  Calculator_Base.o [1]
  .bss               zero     0x2000'06bc     0x4  xfail_s.o [2]
  .bss               zero     0x2000'06c0     0x4  xgetmemchunk.o [2]
  .bss               zero     0x2000'06c4     0x1  Basic_Calc.o [1]
  .bss               zero     0x2000'06c5     0x1  Calculator_Base.o [1]
                            - 0x2000'06c6   0x6b6

"P2", part 3 of 3:                         0x2100
  .noinit            uninit   0x2000'06c8   0x100  startup_ewarm.o [1]
  HEAP                        0x2000'07c8  0x2000  <Block>
    HEAP             uninit   0x2000'07c8  0x2000  <Block tail>
                            - 0x2000'27c8  0x2100

Unused ranges:

         From           To      Size
         ----           --      ----
       0x3e60     0x1'ffff  0x1'c1a0
  0x2000'27c8  0x2000'7fff    0x5838


*******************************************************************************
*** INIT TABLE
***

          Address      Size
          -------      ----
Zero (__iar_zero_init3)
    1 destination range, total size 0x2c6:
          0x2000'0400  0x2c6

Copy (__iar_copy_init3)
    1 source range, total size 0x10 (114% of destination):
               0x3e00   0x10
    1 destination range, total size 0xe:
          0x2000'0000    0xe



*******************************************************************************
*** MODULE SUMMARY
***

    Module                 ro code  ro data  rw data
    ------                 -------  -------  -------
command line/config:
    ------------------------------------------------
    Total:

F:\semester 7\proj_final_0\Debug\Obj: [1]
    Adv_Calc.o                 900       16       12
    Basic_Calc.o             1'312       37       62
    Calculator.o               180       80
    Calculator_Base.o          416       72        5
    Delay.o                     48
    Keypad.o                   312       16
    LCD.o                      616       20
    LEDs.o                     184
    Systick_Timer.o             60
    main.o                      28
    startup_ewarm.o             30      620      256
    stopwatch_2.o              912        1        1
    ------------------------------------------------
    Total:                   4'998      862      336

dl7M_tln.a: [2]
    XShttio.o                    8        8        8
    abort.o                      6
    exit.o                       4
    heap0.o                    316                 8
    heaptramp0.o                 4
    low_level_init.o             4
    printf.o                    40
    putchar.o                   32
    snprintf.o                  68
    sprintf.o                   64
    xfail_s.o                   64                 4
    xgetmemchunk.o              44                 4
    xprintffull_nomb.o       3'758
    xprout.o                    22
    xsnprout.o                  26
    xsprout.o                   10
    ------------------------------------------------
    Total:                   4'470        8       24

driverlib.a: [3]
    cpu.o                        8
    gpio.o                     532
    interrupt.o                368               620
    sysctl.o                   452
    timer.o                    392
    ------------------------------------------------
    Total:                   1'752               620

m7M_tls.a: [4]
    DblAddSub.o                590
    DblCmpGe.o                  52
    DblCmpLe.o                  52
    DblDiv.o                   582
    DblMul.o                   426
    DblToS32.o                  54
    DblToU32.o                  34
    FltToDbl.o                  72
    S32ToDbl.o                  34
    U32ToDbl.o                  28
    fpinit_M.o                  34
    frexp.o                    112
    ldexp.o                    314
    ------------------------------------------------
    Total:                   2'384

rt7M_tl.a: [5]
    ABImemcpy_unaligned.o      118
    ABImemset.o                102
    I64DivMod.o                560
    I64DivZer.o                  2
    cexit.o                     10
    cmain.o                     30
    copy_init3.o                42
    cstartup_M.o                28
    data_init.o                 40
    memchr.o                    88
    memset.o                    20
    strchr.o                    22
    strlen.o                    54
    zero_init3.o                56
    ------------------------------------------------
    Total:                   1'172

shb_l.a: [6]
    dwrite.o                    30
    exit.o                      20
    iarttio.o                  124
    iarwrite.o                  34
    iarwstd.o                   32
    write.o                     16
    ------------------------------------------------
    Total:                     256

    Gaps                        28             1'008
    Linker created                       38    8'192
----------------------------------------------------
    Grand Total:            15'060      908   10'180


*******************************************************************************
*** ENTRY LIST
***

Entry                       Address   Size  Type      Object
-----                       -------   ----  ----      ------
.iar.init_table$$Base        0x3c58          --   Gb  - Linker created -
.iar.init_table$$Limit       0x3c7c          --   Gb  - Linker created -
?main                        0x3d29         Code  Gb  cmain.o [5]
Aldata                  0x2000'0694    0x8  Data  Lc  heap0.o [2]
BlinkLed                     0x2f97   0x20  Code  Gb  stopwatch_2.o [1]
CPUcpsie                     0x368d    0x8  Code  Gb  cpu.o [3]
Configure_SysTick            0x3a09    0xc  Code  Gb  Systick_Timer.o [1]
FaultISR                     0x3d07    0x2  Code  Lc  startup_ewarm.o [1]
GPIOIntClear                 0x2743    0x6  Code  Gb  gpio.o [3]
GPIOIntEnable                0x273d    0x6  Code  Gb  gpio.o [3]
GPIOIntRegister              0x2749   0x14  Code  Gb  gpio.o [3]
HEAP$$Base              0x2000'07c8          --   Gb  - Linker created -
HEAP$$Limit             0x2000'27c8          --   Gb  - Linker created -
IntDefaultHandler            0x3d09    0x2  Code  Lc  startup_ewarm.o [1]
IntEnable                    0x296b   0x56  Code  Gb  interrupt.o [3]
IntMasterEnable              0x2911    0x8  Code  Gb  interrupt.o [3]
IntPrioritySet               0x2947   0x24  Code  Gb  interrupt.o [3]
IntRegister                  0x2921   0x26  Code  Gb  interrupt.o [3]
LCD_Init                     0x23ad   0x8e  Code  Gb  LCD.o [1]
LCD_command                  0x243b   0x30  Code  Gb  LCD.o [1]
LCD_data                     0x246b   0x24  Code  Gb  LCD.o [1]
LCD_errormsg                 0x253f   0x10  Code  Gb  LCD.o [1]
LCD_printFloat               0x24bd   0x64  Code  Gb  LCD.o [1]
LCD_printInt                 0x248f   0x2e  Code  Gb  LCD.o [1]
LCD_printString              0x2521   0x1e  Code  Gb  LCD.o [1]
LCD_setcursorRowCol          0x254f   0x4c  Code  Gb  LCD.o [1]
LED_blue                     0x26c3    0x8  Code  Gb  LEDs.o [1]
LED_green                    0x26cb   0x16  Code  Gb  LEDs.o [1]
LED_red                      0x267b   0x48  Code  Gb  LEDs.o [1]
NmiSR                        0x3d05    0x2  Code  Lc  startup_ewarm.o [1]
Region$$Table$$Base          0x3c58          --   Gb  - Linker created -
Region$$Table$$Limit         0x3c7c          --   Gb  - Linker created -
ResetISR                     0x3ced   0x12  Code  Gb  startup_ewarm.o [1]
SysCtlClockGet               0x3861  0x110  Code  Gb  sysctl.o [3]
SysCtlPeripheralEnable       0x3845    0x8  Code  Gb  sysctl.o [3]
SysTick_Wait1ms              0x3a15   0x22  Code  Gb  Systick_Timer.o [1]
Timer                        0x2a91   0x68  Code  Gb  Adv_Calc.o [1]
Timer0IntHandler             0x1ee5   0x5c  Code  Gb  Basic_Calc.o [1]
Timer0_Init                  0x2bd9   0x46  Code  Gb  Adv_Calc.o [1]
Timer1IntHandler             0x2e05   0x4e  Code  Gb  stopwatch_2.o [1]
TimerConfigure               0x370b   0x52  Code  Gb  timer.o [3]
TimerEnable                  0x36ff    0xc  Code  Gb  timer.o [3]
TimerIntClear                0x37a1    0x4  Code  Gb  timer.o [3]
TimerIntEnable               0x3797    0x4  Code  Gb  timer.o [3]
TimerIntRegister             0x377d   0x1a  Code  Gb  timer.o [3]
TimerLoadSet                 0x376d   0x10  Code  Gb  timer.o [3]
TimerReal                    0x2af9   0xe0  Code  Gb  Adv_Calc.o [1]
_GPIOIntNumberGet            0x26fd   0x40  Code  Lc  gpio.o [3]
_LC                           0x26d    0x6  Code  Lc  xprintffull_nomb.o [2]
_LitobFullNoMb                0xf39  0x114  Code  Lc  xprintffull_nomb.o [2]
_PrintfFullNoMb               0x273  0xc98  Code  Gb  xprintffull_nomb.o [2]
_Prout                       0x3d77   0x16  Code  Gb  xprout.o [2]
_PutcharsFullNoMb            0x10a5   0x2e  Code  Lc  xprintffull_nomb.o [2]
_SNProut                     0x115b   0x1a  Code  Gb  xsnprout.o [2]
_SProut                      0x11eb    0xa  Code  Gb  xsprout.o [2]
_TimerIntNumberGet           0x36bd   0x42  Code  Lc  timer.o [3]
__aeabi_cdcmple              0x1335         Code  Gb  DblCmpLe.o [4]
__aeabi_cdrcmple             0x1369         Code  Gb  DblCmpGe.o [4]
__aeabi_d2iz                 0x14d9         Code  Gb  DblToS32.o [4]
__aeabi_d2uiz                0x19cd         Code  Gb  DblToU32.o [4]
__aeabi_ddiv                 0x1785         Code  Gb  DblDiv.o [4]
__aeabi_dmul                 0x1a0d         Code  Gb  DblMul.o [4]
__aeabi_dsub                 0x16a1         Code  Gb  DblAddSub.o [4]
__aeabi_f2d                  0x34c1         Code  Gb  FltToDbl.o [4]
__aeabi_i2d                  0x1511         Code  Gb  S32ToDbl.o [4]
__aeabi_ldiv0                0x1df1         Code  Gb  I64DivZer.o [5]
__aeabi_memset               0x3af9         Code  Gb  ABImemset.o [5]
__aeabi_ui2d                 0x19f1         Code  Gb  U32ToDbl.o [4]
__aeabi_uldivmod             0x1bb9         Code  Gb  I64DivMod.o [5]
__basic_free                 0x35f9   0x16  Code  Gb  heap0.o [2]
__basic_free_intern          0x360f   0x74  Code  Lc  heap0.o [2]
__basic_malloc               0x354d   0x18  Code  Gb  heap0.o [2]
__basic_malloc_intern        0x3565   0x94  Code  Lc  heap0.o [2]
__cmain                      0x3d29         Code  Gb  cmain.o [5]
__data_GetMemChunk           0x3b61   0x2c  Code  Gb  xgetmemchunk.o [2]
__data_GetMemChunk::start
                        0x2000'06c0    0x4  Data  Lc  xgetmemchunk.o [2]
__dwrite                     0x3cad   0x1e  Code  Gb  dwrite.o [6]
__exit                       0x1df5   0x14  Code  Gb  exit.o [6]
__iar_Fail_s                 0x1175   0x1c  Code  Gb  xfail_s.o [2]
__iar_Memchr                 0x11f5         Code  Gb  memchr.o [5]
__iar_Memset                 0x3af9         Code  Gb  ABImemset.o [5]
__iar_Memset_word            0x3b01         Code  Gb  ABImemset.o [5]
__iar_Strchr                 0x1145         Code  Gb  strchr.o [5]
__iar_close_ttio             0x1e09   0x2c  Code  Gb  iarttio.o [6]
__iar_copy_init3             0x111b   0x2a  Code  Gb  copy_init3.o [5]
__iar_data_init3             0x3bed   0x28  Code  Gb  data_init.o [5]
__iar_frexp                  0x12d1         Code  Gb  frexp.o [4]
__iar_frexpl                 0x12d1         Code  Gb  frexp.o [4]
__iar_get_ttio               0x1e35   0x4c  Code  Gb  iarttio.o [6]
__iar_init_vfp               0x3c15         Code  Gb  fpinit_M.o [4]
__iar_ldexp64                0x139d         Code  Gb  ldexp.o [4]
__iar_lookup_ttioh           0x1e85    0x8  Code  Gb  XShttio.o [2]
__iar_program_start          0x3d0d         Code  Gb  cstartup_M.o [5]
__iar_scalbln64              0x139d         Code  Gb  ldexp.o [4]
__iar_scalbn64               0x139d         Code  Gb  ldexp.o [4]
__iar_sh_stdout              0x3ccb   0x20  Code  Gb  iarwstd.o [6]
__iar_sh_write               0x3c37   0x22  Code  Gb  iarwrite.o [6]
__iar_softfp___iar_frexp64
                             0x12c5         Code  Gb  frexp.o [4]
__iar_softfp_frexp           0x12c5         Code  Gb  frexp.o [4]
__iar_softfp_frexpl          0x12c5         Code  Gb  frexp.o [4]
__iar_ttio_handles      0x2000'0000    0x8  Data  Lc  XShttio.o [2]
__iar_unaligned_memcpy       0x124d         Code  Gb  ABImemcpy_unaligned.o [5]
__iar_unaligned_memcpy4
                             0x126d         Code  Gb  ABImemcpy_unaligned.o [5]
__iar_unaligned_memcpy8
                             0x126d         Code  Gb  ABImemcpy_unaligned.o [5]
__iar_zero_init3             0x3b8d   0x38  Code  Gb  zero_init3.o [5]
__low_level_init             0x3d47    0x4  Code  Gb  low_level_init.o [2]
__vector_table                  0x0  0x26c  Data  Gb  startup_ewarm.o [1]
__write                      0x3c9d   0x10  Code  Gb  write.o [6]
_call_main                   0x3d35         Code  Gb  cmain.o [5]
_exit                        0x3d6d         Code  Gb  cexit.o [5]
abort                        0x1de9    0x6  Code  Gb  abort.o [2]
add                          0x2277   0x16  Code  Gb  Basic_Calc.o [1]
addition                0x2000'0009    0x1  Data  Gb  Basic_Calc.o [1]
calc                         0x1f41  0x302  Code  Gb  Basic_Calc.o [1]
calculator_Init              0x3a45   0x10  Code  Gb  Calculator.o [1]
calculator_menu              0x3a89   0x56  Code  Gb  Calculator.o [1]
calculator_welcomeMsg        0x3a55   0x34  Code  Gb  Calculator.o [1]
clear_data                   0x2329   0x32  Code  Gb  Basic_Calc.o [1]
delay_ms                     0x2615   0x1a  Code  Gb  Delay.o [1]
delay_us                     0x262f   0x16  Code  Gb  Delay.o [1]
disableTimer                 0x2e8f    0xc  Code  Gb  stopwatch_2.o [1]
displaySecFractions          0x2f55   0x42  Code  Gb  stopwatch_2.o [1]
displayTime_1                0x2eb1   0xa4  Code  Gb  stopwatch_2.o [1]
divi                         0x22b9   0x70  Code  Gb  Basic_Calc.o [1]
division                0x2000'000c    0x1  Data  Gb  Basic_Calc.o [1]
enableTimer                  0x2e83    0xc  Code  Gb  stopwatch_2.o [1]
errorEntry                   0x3373   0x34  Code  Gb  Calculator_Base.o [1]
exit                         0x3d69    0x4  Code  Gb  exit.o [2]
fini_calc                    0x2243   0x34  Code  Gb  Basic_Calc.o [1]
flag                    0x2000'069c    0x4  Data  Gb  Adv_Calc.o [1]
floatkey                0x2000'06b4    0x4  Data  Gb  Basic_Calc.o [1]
free                         0x3689    0x4  Code  Gb  heaptramp0.o [2]
g_pfnRAMVectors         0x2000'0400  0x26c  Data  Lc  interrupt.o [3]
g_ppui32GPIOIntMapBlizzard
                             0x2778   0xc0  Data  Lc  gpio.o [3]
g_ppui32GPIOIntMapSnowflake
                             0x2838   0xd8  Data  Lc  gpio.o [3]
g_ppui32TimerIntMap          0x37a4   0x60  Data  Lc  timer.o [3]
g_ppui32TimerIntMapSnowflake
                             0x3804   0x40  Data  Lc  timer.o [3]
g_pui32EnRegs                0x2a6c   0x14  Data  Lc  interrupt.o [3]
g_pui32Regs                  0x29d0   0x9c  Data  Lc  interrupt.o [3]
g_pui32Xtals                 0x399c   0x6c  Data  Lc  sysctl.o [3]
getOvrFlwFlg                 0x2e9b   0x16  Code  Gb  stopwatch_2.o [1]
getStarted                   0x331b   0x4a  Code  Gb  Calculator_Base.o [1]
init_PortD                   0x32f7   0x24  Code  Gb  Calculator_Base.o [1]
init_PortfF                  0x32cd   0x2a  Code  Gb  Calculator_Base.o [1]
isEnter                 0x2000'0008    0x1  Data  Gb  Basic_Calc.o [1]
isEnter3                0x2000'000d    0x1  Data  Gb  stopwatch_2.o [1]
key                     0x2000'06c5    0x1  Data  Gb  Calculator_Base.o [1]
key1                    0x2000'06c4    0x1  Data  Gb  Basic_Calc.o [1]
keypad_Init                  0x3195   0x56  Code  Gb  Keypad.o [1]
keypad_getkey                0x31eb   0x58  Code  Gb  Keypad.o [1]
keypad_getkey_2              0x3243   0x56  Code  Gb  Keypad.o [1]
ldexp                        0x139d         Code  Gb  ldexp.o [4]
ldexpl                       0x139d         Code  Gb  ldexp.o [4]
loading                      0x259b   0x44  Code  Gb  LCD.o [1]
m                       0x2000'06a0    0x4  Data  Gb  Adv_Calc.o [1]
main                         0x3d4d   0x1c  Code  Gb  main.o [1]
mem                     0x2000'066c   0x28  Data  Gb  Basic_Calc.o [1]
memchr                       0x11f5         Code  Gb  memchr.o [5]
memcount                0x2000'06b8    0x4  Data  Gb  Calculator_Base.o [1]
memfinalize                  0x33c1   0x68  Code  Gb  Calculator_Base.o [1]
memset                       0x346d   0x14  Code  Gb  memset.o [5]
mult                         0x22a3   0x16  Code  Gb  Basic_Calc.o [1]
multiply                0x2000'000b    0x1  Data  Gb  Basic_Calc.o [1]
num1                    0x2000'06ac    0x4  Data  Gb  Basic_Calc.o [1]
num2                    0x2000'06b0    0x4  Data  Gb  Basic_Calc.o [1]
oneShotConfigure             0x2e53   0x30  Code  Gb  stopwatch_2.o [1]
portF_Init                   0x2645   0x36  Code  Gb  LEDs.o [1]
printf                       0x3695   0x28  Code  Gb  printf.o [2]
pui32Stack              0x2000'06c8  0x100  Data  Lc  startup_ewarm.o [1]
putchar                      0x3c7d   0x20  Code  Gb  putchar.o [2]
result                  0x2000'06a8    0x4  Data  Gb  Basic_Calc.o [1]
s                       0x2000'06a4    0x4  Data  Gb  Adv_Calc.o [1]
scalbln                      0x139d         Code  Gb  ldexp.o [4]
scalblnl                     0x139d         Code  Gb  ldexp.o [4]
scalbn                       0x139d         Code  Gb  ldexp.o [4]
scalbnl                      0x139d         Code  Gb  ldexp.o [4]
scale                        0x104d   0x46  Code  Lc  xprintffull_nomb.o [2]
scanKeypad                   0x3365    0xe  Code  Gb  Calculator_Base.o [1]
sec_hand                0x2000'06bc    0x4  Data  Lc  xfail_s.o [2]
snprintf                     0x3509   0x44  Code  Gb  snprintf.o [2]
sprintf                      0x3481   0x40  Code  Gb  sprintf.o [2]
start_calc                   0x1e8d   0x58  Code  Gb  Basic_Calc.o [1]
start_timer                  0x2a81   0x10  Code  Gb  Adv_Calc.o [1]
stopwatch                    0x2fb9  0x180  Code  Gb  stopwatch_2.o [1]
store                        0x33a7   0x18  Code  Gb  Calculator_Base.o [1]
strchr                       0x1145         Code  Gb  strchr.o [5]
strlen                       0x11b5         Code  Gb  strlen.o [5]
sub                          0x228d   0x16  Code  Gb  Basic_Calc.o [1]
subtract                0x2000'000a    0x1  Data  Gb  Basic_Calc.o [1]
symbol                       0x3df0   0x10  Data  Gb  Keypad.o [1]
timer                        0x2c21  0x196  Code  Gb  Adv_Calc.o [1]


[1] = F:\semester 7\proj_final_0\Debug\Obj
[2] = dl7M_tln.a
[3] = driverlib.a
[4] = m7M_tls.a
[5] = rt7M_tl.a
[6] = shb_l.a

  15'060 bytes of readonly  code memory
     908 bytes of readonly  data memory
  10'180 bytes of readwrite data memory

Errors: none
Warnings: 2
